; Function Attrs: nounwind uwtable
define zeroext i8 @l_Lean_Expr_hasAnyFVar_visit___at_Lean_Elab_WF_GuessLex_complexMeasures___spec__2(ptr noundef %0, ptr noundef %1) local_unnamed_addr #1 {
  %3 = tail call zeroext i8 @l_Lean_Expr_hasFVar(ptr noundef %1) #8
  %4 = icmp eq i8 %3, 0
  br i1 %4, label %.thread, label %.lr.ph

.lr.ph:                                           ; preds = %2, %select.unfold
  %.04787 = phi ptr [ %.148, %select.unfold ], [ %1, %2 ]
  %5 = ptrtoint ptr %.04787 to i64
  %6 = and i64 %5, 1
  %.not.i = icmp eq i64 %6, 0
  br i1 %.not.i, label %10, label %7

7:                                                ; preds = %.lr.ph
  %8 = lshr i64 %5, 1
  %9 = trunc i64 %8 to i32
  br label %lean_obj_tag.exit

10:                                               ; preds = %.lr.ph
  %11 = getelementptr i8, ptr %.04787, i64 4
  %.val.i = load i32, ptr %11, align 4
  %12 = lshr i32 %.val.i, 24
  br label %lean_obj_tag.exit

lean_obj_tag.exit:                                ; preds = %7, %10
  %.0.i = phi i32 [ %9, %7 ], [ %12, %10 ]
  switch i32 %.0.i, label %.thread [
    i32 1, label %13
    i32 5, label %17
    i32 6, label %24
    i32 7, label %31
    i32 8, label %38
    i32 10, label %select.unfold.sink.split
    i32 11, label %50
  ]

13:                                               ; preds = %lean_obj_tag.exit
  %14 = getelementptr inbounds nuw i8, ptr %.04787, i64 8
  %15 = load ptr, ptr %14, align 8, !tbaa !4
  %16 = tail call zeroext i8 @l_Array_contains___at___private_Lean_Class_0__Lean_checkOutParam___spec__1(ptr noundef %0, ptr noundef %15) #8
  br label %.thread

17:                                               ; preds = %lean_obj_tag.exit
  %18 = getelementptr inbounds nuw i8, ptr %.04787, i64 8
  %19 = load ptr, ptr %18, align 8, !tbaa !4
  %20 = getelementptr inbounds nuw i8, ptr %.04787, i64 16
  %21 = load ptr, ptr %20, align 8, !tbaa !4
  %22 = tail call zeroext i8 @l_Lean_Expr_hasAnyFVar_visit___at_Lean_Elab_WF_GuessLex_complexMeasures___spec__2(ptr noundef %0, ptr noundef %19)
  %23 = icmp eq i8 %22, 0
  br i1 %23, label %select.unfold, label %.thread

24:                                               ; preds = %lean_obj_tag.exit
  %25 = getelementptr inbounds nuw i8, ptr %.04787, i64 16
  %26 = load ptr, ptr %25, align 8, !tbaa !4
  %27 = getelementptr inbounds nuw i8, ptr %.04787, i64 24
  %28 = load ptr, ptr %27, align 8, !tbaa !4
  %29 = tail call zeroext i8 @l_Lean_Expr_hasAnyFVar_visit___at_Lean_Elab_WF_GuessLex_complexMeasures___spec__2(ptr noundef %0, ptr noundef %26)
  %30 = icmp eq i8 %29, 0
  br i1 %30, label %select.unfold, label %.thread

31:                                               ; preds = %lean_obj_tag.exit
  %32 = getelementptr inbounds nuw i8, ptr %.04787, i64 16
  %33 = load ptr, ptr %32, align 8, !tbaa !4
  %34 = getelementptr inbounds nuw i8, ptr %.04787, i64 24
  %35 = load ptr, ptr %34, align 8, !tbaa !4
  %36 = tail call zeroext i8 @l_Lean_Expr_hasAnyFVar_visit___at_Lean_Elab_WF_GuessLex_complexMeasures___spec__2(ptr noundef %0, ptr noundef %33)
  %37 = icmp eq i8 %36, 0
  br i1 %37, label %select.unfold, label %.thread

38:                                               ; preds = %lean_obj_tag.exit
  %39 = getelementptr inbounds nuw i8, ptr %.04787, i64 16
  %40 = load ptr, ptr %39, align 8, !tbaa !4
  %41 = getelementptr inbounds nuw i8, ptr %.04787, i64 24
  %42 = load ptr, ptr %41, align 8, !tbaa !4
  %43 = getelementptr inbounds nuw i8, ptr %.04787, i64 32
  %44 = load ptr, ptr %43, align 8, !tbaa !4
  %45 = tail call zeroext i8 @l_Lean_Expr_hasAnyFVar_visit___at_Lean_Elab_WF_GuessLex_complexMeasures___spec__2(ptr noundef %0, ptr noundef %40)
  %46 = icmp eq i8 %45, 0
  br i1 %46, label %47, label %.thread

47:                                               ; preds = %38
  %48 = tail call zeroext i8 @l_Lean_Expr_hasAnyFVar_visit___at_Lean_Elab_WF_GuessLex_complexMeasures___spec__2(ptr noundef %0, ptr noundef %42)
  %49 = icmp eq i8 %48, 0
  br i1 %49, label %select.unfold, label %.thread

50:                                               ; preds = %lean_obj_tag.exit
  br label %select.unfold.sink.split

select.unfold.sink.split:                         ; preds = %lean_obj_tag.exit, %50
  %.sink85 = phi i64 [ 24, %50 ], [ 16, %lean_obj_tag.exit ]
  %51 = getelementptr inbounds nuw i8, ptr %.04787, i64 %.sink85
  %52 = load ptr, ptr %51, align 8, !tbaa !4
  br label %select.unfold

select.unfold:                                    ; preds = %select.unfold.sink.split, %47, %17, %24, %31
  %.148 = phi ptr [ %35, %31 ], [ %28, %24 ], [ %21, %17 ], [ %44, %47 ], [ %52, %select.unfold.sink.split ]
  %53 = tail call zeroext i8 @l_Lean_Expr_hasFVar(ptr noundef %.148) #8
  %54 = icmp eq i8 %53, 0
  br i1 %54, label %.thread, label %.lr.ph

.thread:                                          ; preds = %select.unfold, %38, %lean_obj_tag.exit, %31, %24, %17, %47, %2, %13
  %.174 = phi i8 [ %16, %13 ], [ 0, %2 ], [ 1, %47 ], [ 1, %17 ], [ 1, %24 ], [ 1, %31 ], [ 0, %lean_obj_tag.exit ], [ 1, %38 ], [ 0, %select.unfold ]
  ret i8 %.174
}